Certificate:
    Data:
        Version: 3 (0x2)
        Serial Number: 3 (0x3)
    Signature Algorithm: sha256WithRSAEncryption
        Issuer: O=iMovies, OU=PKI Infrastructure, CN=Certificate Authority
        Validity
            Not Before: Nov  8 18:01:57 2014 GMT
            Not After : Nov  8 18:01:57 2015 GMT
        Subject: O=iMovies, OU=TLS Infrastructure, CN=Backup Server
        Subject Public Key Info:
            Public Key Algorithm: rsaEncryption
                Public-Key: (2048 bit)
                Modulus:
                    00:c7:f8:6c:6a:9d:a2:36:43:3c:93:bf:bd:8e:68:
                    12:d5:39:ae:0b:db:f4:10:dd:6d:c8:4b:ce:77:4c:
                    b1:d4:ae:e3:1a:c5:cc:98:23:f2:81:c5:50:6d:d3:
                    66:d9:8b:09:19:19:b2:0c:c7:9d:a5:e4:9a:13:c3:
                    63:f9:33:58:22:97:e9:70:5f:81:e0:a1:9b:3d:b1:
                    1a:a4:4d:1c:29:ca:59:c9:0e:32:ec:c8:28:50:81:
                    66:5e:0d:b1:02:67:f9:73:40:de:4a:77:70:91:5a:
                    59:76:cd:22:a4:6e:33:1a:3c:26:b4:62:3c:0e:c3:
                    39:72:8b:de:6b:84:b7:53:95:80:e2:47:11:86:dc:
                    a0:f1:50:db:17:d3:80:c7:39:b2:0f:16:2e:e0:fb:
                    32:b6:f8:03:fa:f9:eb:25:b0:d1:2c:69:be:41:33:
                    c4:d4:2e:43:75:7f:d1:e0:61:c7:3b:02:29:9c:25:
                    ed:54:55:65:46:44:cd:e8:f9:ec:27:12:81:23:ea:
                    84:fd:46:78:72:09:e0:f4:c8:b0:a1:d3:c4:72:a4:
                    c2:8a:9b:51:15:99:15:b2:06:36:be:f5:80:a1:55:
                    81:5e:56:ea:20:f4:5d:f3:7f:ae:82:c1:1c:c1:a7:
                    e9:42:6f:b0:68:8d:3d:cd:85:e8:6e:4c:0a:fa:7c:
                    6d:b3
                Exponent: 65537 (0x10001)
        X509v3 extensions:
            X509v3 Subject Key Identifier: 
                92:9C:4A:ED:93:76:68:C7:1F:B9:13:12:B9:9F:60:24:DD:5C:D3:DB
            X509v3 Authority Key Identifier: 
                keyid:6C:11:C9:8B:07:A9:64:37:99:0B:0E:DF:F2:92:3C:82:56:A2:73:72
                DirName:/O=iMovies/OU=PKI Infrastructure/CN=Certificate Authority
                serial:C1:E9:5B:11:4B:58:8E:22

            X509v3 Basic Constraints: 
                CA:FALSE
            X509v3 Key Usage: 
                Digital Signature, Non Repudiation, Key Agreement
    Signature Algorithm: sha256WithRSAEncryption
         24:1c:17:ec:2d:22:b6:1c:95:00:d4:9c:f7:77:bf:ee:42:83:
         df:72:30:17:dc:d1:26:7a:20:92:c9:07:05:a9:c0:19:fd:bb:
         d7:8e:6a:26:bc:db:c4:ed:01:f8:fa:c7:fc:b7:f3:1b:14:25:
         36:28:d7:08:f4:52:98:20:a1:ab:9c:a5:9b:f0:48:01:25:a0:
         a0:3d:ac:a3:33:b3:25:a7:3d:c2:8b:a6:7b:5f:74:f6:1a:4c:
         4c:f8:da:f5:09:88:f6:7a:1a:dd:0f:a6:44:70:c6:a5:f4:6d:
         0b:be:a0:93:d4:28:a0:3d:26:37:7f:5b:68:af:54:00:4f:c1:
         2b:5d:8a:e4:92:86:68:f1:b4:25:fc:d6:12:09:69:4f:30:2d:
         c5:f0:fe:08:e4:ba:6f:80:b8:c6:6a:d7:e6:3a:27:02:15:3b:
         cf:ce:76:0c:f1:2b:f2:4f:92:c5:d9:9c:4c:8f:1e:08:79:df:
         55:57:11:f4:5b:fa:71:ed:2c:24:04:ac:f7:ff:6a:83:8d:15:
         b5:07:cd:2d:e3:d5:a6:44:fe:74:51:a6:df:a3:01:d0:76:23:
         6c:bd:d4:9b:9e:9e:3a:54:f6:5d:86:f9:c2:6d:a6:fb:09:43:
         dc:91:ae:89:5f:f8:b9:cc:2e:01:c1:62:c7:2e:83:2a:09:c6:
         09:ba:66:6d:fd:1e:8c:8d:52:25:e5:78:8c:96:a2:c6:61:62:
         14:6d:ea:7b:90:36:fe:44:94:7d:29:da:51:02:a1:89:a8:2d:
         2f:48:6e:15:1c:9f:9c:97:ae:62:fb:f3:7b:b8:6c:6f:78:0d:
         c1:a9:01:e2:03:2f:26:ad:eb:4d:46:62:02:61:f6:01:e4:3b:
         68:12:38:ae:78:e2:27:ad:50:c8:50:02:0a:81:94:9f:e1:90:
         c9:09:04:8a:db:f0:a3:ad:98:a1:b9:dd:26:c0:af:6a:b2:7f:
         d3:cf:9c:b4:58:54:6b:37:6b:e2:87:90:e8:d6:61:2d:3c:f1:
         40:6c:86:88:03:14:8e:8b:8d:49:69:9e:8a:dc:9c:dd:d0:3d:
         07:b2:0f:d1:fe:f9:75:1e:91:f7:62:61:2a:24:de:a8:ac:01:
         df:85:b2:c2:41:76:7d:10:8c:a1:f3:19:87:6d:1f:8d:d7:4d:
         f8:3c:03:1d:21:48:73:b9:d1:1d:c7:10:ff:35:86:36:cb:00:
         d4:58:9d:81:08:17:1c:39:ab:85:96:29:9a:e6:ba:3e:3a:0e:
         03:2d:c7:a0:61:d8:1e:0a:4a:a6:a2:ba:f5:b3:37:ff:3b:15:
         4f:b1:90:5b:8e:44:1e:99:cd:44:bc:06:46:b6:92:ae:5a:f8:
         88:65:db:b8:a7:95:a0:e6
-----BEGIN CERTIFICATE-----
MIIEzTCCArWgAwIBAgIBAzANBgkqhkiG9w0BAQsFADBPMRAwDgYDVQQKDAdpTW92
aWVzMRswGQYDVQQLDBJQS0kgSW5mcmFzdHJ1Y3R1cmUxHjAcBgNVBAMMFUNlcnRp
ZmljYXRlIEF1dGhvcml0eTAeFw0xNDExMDgxODAxNTdaFw0xNTExMDgxODAxNTda
MEcxEDAOBgNVBAoMB2lNb3ZpZXMxGzAZBgNVBAsMElRMUyBJbmZyYXN0cnVjdHVy
ZTEWMBQGA1UEAwwNQmFja3VwIFNlcnZlcjCCASIwDQYJKoZIhvcNAQEBBQADggEP
ADCCAQoCggEBAMf4bGqdojZDPJO/vY5oEtU5rgvb9BDdbchLzndMsdSu4xrFzJgj
8oHFUG3TZtmLCRkZsgzHnaXkmhPDY/kzWCKX6XBfgeChmz2xGqRNHCnKWckOMuzI
KFCBZl4NsQJn+XNA3kp3cJFaWXbNIqRuMxo8JrRiPA7DOXKL3muEt1OVgOJHEYbc
oPFQ2xfTgMc5sg8WLuD7Mrb4A/r56yWw0SxpvkEzxNQuQ3V/0eBhxzsCKZwl7VRV
ZUZEzej57CcSgSPqhP1GeHIJ4PTIsKHTxHKkwoqbURWZFbIGNr71gKFVgV5W6iD0
XfN/roLBHMGn6UJvsGiNPc2F6G5MCvp8bbMCAwEAAaOBuzCBuDAdBgNVHQ4EFgQU
kpxK7ZN2aMcfuRMSuZ9gJN1c09swfwYDVR0jBHgwdoAUbBHJiwepZDeZCw7f8pI8
glaic3KhU6RRME8xEDAOBgNVBAoMB2lNb3ZpZXMxGzAZBgNVBAsMElBLSSBJbmZy
YXN0cnVjdHVyZTEeMBwGA1UEAwwVQ2VydGlmaWNhdGUgQXV0aG9yaXR5ggkAwelb
EUtYjiIwCQYDVR0TBAIwADALBgNVHQ8EBAMCA8gwDQYJKoZIhvcNAQELBQADggIB
ACQcF+wtIrYclQDUnPd3v+5Cg99yMBfc0SZ6IJLJBwWpwBn9u9eOaia828TtAfj6
x/y38xsUJTYo1wj0UpggoaucpZvwSAEloKA9rKMzsyWnPcKLpntfdPYaTEz42vUJ
iPZ6Gt0PpkRwxqX0bQu+oJPUKKA9Jjd/W2ivVABPwStdiuSShmjxtCX81hIJaU8w
LcXw/gjkum+AuMZq1+Y6JwIVO8/OdgzxK/JPksXZnEyPHgh531VXEfRb+nHtLCQE
rPf/aoONFbUHzS3j1aZE/nRRpt+jAdB2I2y91JuenjpU9l2G+cJtpvsJQ9yRrolf
+LnMLgHBYscugyoJxgm6Zm39HoyNUiXleIyWosZhYhRt6nuQNv5ElH0p2lECoYmo
LS9IbhUcn5yXrmL783u4bG94DcGpAeIDLyat601GYgJh9gHkO2gSOK544ietUMhQ
AgqBlJ/hkMkJBIrb8KOtmKG53SbAr2qyf9PPnLRYVGs3a+KHkOjWYS088UBshogD
FI6LjUlpnorcnN3QPQeyD9H++XUekfdiYSok3qisAd+FssJBdn0QjKHzGYdtH43X
Tfg8Ax0hSHO50R3HEP81hjbLANRYnYEIFxw5q4WWKZrmuj46DgMtx6Bh2B4KSqai
uvWzN/87FU+xkFuORB6ZzUS8Bka2kq5a+Ihl27inlaDm
-----END CERTIFICATE-----
