Certificate:
    Data:
        Version: 3 (0x2)
        Serial Number: 1 (0x1)
    Signature Algorithm: sha256WithRSAEncryption
        Issuer: O=iMovies, OU=PKI Infrastructure, CN=Certificate Authority
        Validity
            Not Before: Nov  8 18:01:57 2014 GMT
            Not After : Nov  8 18:01:57 2015 GMT
        Subject: O=iMovies, OU=TLS Infrastructure, CN=Web Server
        Subject Public Key Info:
            Public Key Algorithm: rsaEncryption
                Public-Key: (2048 bit)
                Modulus:
                    00:a9:d2:5c:a3:b7:db:20:70:b0:b2:f8:5a:a4:53:
                    59:b4:7b:bf:6e:ee:46:7c:ed:00:c9:40:36:66:72:
                    b4:a4:90:6f:b8:3d:29:fe:59:10:46:ed:1d:85:aa:
                    50:f2:30:99:42:c6:3a:a4:e5:ac:47:a5:36:d5:81:
                    d5:c0:ee:6b:1e:92:f0:17:a5:f2:4b:3a:a3:ac:90:
                    04:c3:8b:99:f5:5c:98:3a:d8:a5:aa:00:9d:d8:06:
                    bd:19:04:69:11:7f:56:1a:92:7b:9b:0e:a0:79:bc:
                    c1:be:0a:83:ee:0d:b2:97:eb:34:74:6e:05:07:99:
                    52:50:d3:f7:cf:61:95:20:ac:d7:a4:6c:1e:6d:52:
                    9f:46:ed:2d:14:e5:54:d7:4d:25:17:23:ad:2a:6c:
                    87:3f:9a:99:c0:7d:bb:8c:9c:36:63:25:a8:95:d4:
                    3c:1a:7f:2e:08:50:36:9a:d7:6d:60:64:2c:63:e7:
                    7c:b8:a5:aa:ba:34:e3:0d:c9:da:5e:82:36:62:db:
                    12:dc:4a:78:13:22:29:7d:47:d6:1d:a9:60:72:35:
                    52:1d:00:33:19:0f:c8:2e:d4:8c:03:44:42:e5:32:
                    4c:1f:e5:3b:ee:16:e8:57:eb:a0:1c:5e:63:15:02:
                    8a:2f:d2:1c:38:0d:2d:6f:c4:21:9b:cb:4a:6e:3f:
                    f7:9f
                Exponent: 65537 (0x10001)
        X509v3 extensions:
            X509v3 Subject Key Identifier: 
                AA:41:4F:41:D6:D8:79:2D:52:7F:70:F8:CD:C3:8A:6B:C0:3C:D2:B0
            X509v3 Authority Key Identifier: 
                keyid:6C:11:C9:8B:07:A9:64:37:99:0B:0E:DF:F2:92:3C:82:56:A2:73:72
                DirName:/O=iMovies/OU=PKI Infrastructure/CN=Certificate Authority
                serial:C1:E9:5B:11:4B:58:8E:22

            X509v3 Basic Constraints: 
                CA:FALSE
            X509v3 Key Usage: 
                Digital Signature, Non Repudiation, Key Agreement
            X509v3 Extended Key Usage: 
                TLS Web Server Authentication
    Signature Algorithm: sha256WithRSAEncryption
         9a:43:0a:aa:0a:22:09:db:cb:c3:4d:4b:df:16:30:56:97:3e:
         b1:bb:4c:f2:79:c6:fe:79:83:a6:b0:90:83:76:8a:a2:4e:63:
         12:a5:c0:1e:69:61:57:1d:4b:3e:d8:c3:c4:ac:e1:32:00:5e:
         ff:b0:34:e7:c3:78:94:b8:45:28:4d:3a:bc:1e:30:22:7b:fc:
         2f:6d:8f:dc:3c:38:e7:9f:77:d3:62:f6:05:a3:f0:b8:03:66:
         55:54:c2:06:1e:25:77:aa:82:f5:80:f8:56:e1:50:b6:5f:21:
         a2:23:fb:6f:38:ae:80:6e:0f:be:a9:7d:89:a8:92:f7:95:25:
         a1:9e:fb:71:99:c2:b2:c0:f0:55:6c:4e:9e:2d:cb:6c:a2:fe:
         bd:d8:db:ef:f2:8c:a3:73:e4:1c:5b:f1:02:b3:f1:4d:df:c3:
         4b:f5:28:ad:be:9d:cf:59:c4:be:c2:7f:15:8b:eb:a8:1f:ca:
         95:a1:10:fa:18:90:ee:d2:4e:8a:1e:76:47:24:5a:22:b7:af:
         22:c5:07:54:0e:fe:64:9d:ff:37:cf:11:a4:ef:8c:39:4f:67:
         34:54:e1:5f:0f:af:67:43:36:38:52:2f:47:9a:f0:35:c6:7a:
         5f:41:1c:70:fc:93:b4:9b:3f:b5:81:4f:00:16:56:5b:6a:6d:
         27:53:d2:3e:e1:a8:f0:33:78:7a:1a:7d:70:8c:23:24:e8:56:
         dc:6b:fd:30:f3:2e:b8:7c:d1:e1:b0:92:74:7a:c5:a9:d9:f5:
         12:a4:5b:fd:7f:96:46:a6:f5:10:b8:47:3f:1a:c9:69:d8:9d:
         8e:04:c9:2a:c9:69:be:4f:f8:91:82:e3:79:12:a7:46:71:6a:
         f2:7e:eb:4b:43:e2:ec:74:00:c9:56:bc:50:4d:4f:74:d2:9a:
         f3:88:cd:4c:15:94:c7:eb:20:bf:79:0c:99:50:a6:56:e6:85:
         e9:5e:21:6f:8f:7d:25:dd:58:fc:83:f1:4b:68:00:a4:02:93:
         a9:53:60:27:76:d9:72:c6:b7:5e:56:54:93:18:0c:23:69:c6:
         a1:6d:a1:85:c4:04:0a:70:44:3e:d2:31:c6:96:03:e3:6e:9f:
         96:a5:c0:43:4c:92:8f:38:d8:12:0c:cb:2b:01:08:6b:4b:9f:
         64:c6:eb:6f:de:a8:f5:59:e7:bd:1d:3b:3c:67:02:e6:99:e8:
         fc:02:52:ab:73:2f:34:21:2e:4f:d3:ea:e8:ca:7d:96:3f:17:
         fe:b5:05:47:22:f0:0c:7d:e1:dc:b7:08:79:57:b1:2a:c6:74:
         e2:a4:76:b0:f5:cc:4b:dc:69:b5:88:f7:21:79:2a:ec:90:86:
         a2:a4:03:ff:aa:6b:e6:65
-----BEGIN CERTIFICATE-----
MIIE3zCCAsegAwIBAgIBATANBgkqhkiG9w0BAQsFADBPMRAwDgYDVQQKDAdpTW92
aWVzMRswGQYDVQQLDBJQS0kgSW5mcmFzdHJ1Y3R1cmUxHjAcBgNVBAMMFUNlcnRp
ZmljYXRlIEF1dGhvcml0eTAeFw0xNDExMDgxODAxNTdaFw0xNTExMDgxODAxNTda
MEQxEDAOBgNVBAoMB2lNb3ZpZXMxGzAZBgNVBAsMElRMUyBJbmZyYXN0cnVjdHVy
ZTETMBEGA1UEAwwKV2ViIFNlcnZlcjCCASIwDQYJKoZIhvcNAQEBBQADggEPADCC
AQoCggEBAKnSXKO32yBwsLL4WqRTWbR7v27uRnztAMlANmZytKSQb7g9Kf5ZEEbt
HYWqUPIwmULGOqTlrEelNtWB1cDuax6S8Bel8ks6o6yQBMOLmfVcmDrYpaoAndgG
vRkEaRF/VhqSe5sOoHm8wb4Kg+4NspfrNHRuBQeZUlDT989hlSCs16RsHm1Sn0bt
LRTlVNdNJRcjrSpshz+amcB9u4ycNmMlqJXUPBp/LghQNprXbWBkLGPnfLilqro0
4w3J2l6CNmLbEtxKeBMiKX1H1h2pYHI1Uh0AMxkPyC7UjANEQuUyTB/lO+4W6Ffr
oBxeYxUCii/SHDgNLW/EIZvLSm4/958CAwEAAaOB0DCBzTAdBgNVHQ4EFgQUqkFP
QdbYeS1Sf3D4zcOKa8A80rAwfwYDVR0jBHgwdoAUbBHJiwepZDeZCw7f8pI8glai
c3KhU6RRME8xEDAOBgNVBAoMB2lNb3ZpZXMxGzAZBgNVBAsMElBLSSBJbmZyYXN0
cnVjdHVyZTEeMBwGA1UEAwwVQ2VydGlmaWNhdGUgQXV0aG9yaXR5ggkAwelbEUtY
jiIwCQYDVR0TBAIwADALBgNVHQ8EBAMCA8gwEwYDVR0lBAwwCgYIKwYBBQUHAwEw
DQYJKoZIhvcNAQELBQADggIBAJpDCqoKIgnby8NNS98WMFaXPrG7TPJ5xv55g6aw
kIN2iqJOYxKlwB5pYVcdSz7Yw8Ss4TIAXv+wNOfDeJS4RShNOrweMCJ7/C9tj9w8
OOefd9Ni9gWj8LgDZlVUwgYeJXeqgvWA+FbhULZfIaIj+284roBuD76pfYmokveV
JaGe+3GZwrLA8FVsTp4ty2yi/r3Y2+/yjKNz5Bxb8QKz8U3fw0v1KK2+nc9ZxL7C
fxWL66gfypWhEPoYkO7STooedkckWiK3ryLFB1QO/mSd/zfPEaTvjDlPZzRU4V8P
r2dDNjhSL0ea8DXGel9BHHD8k7SbP7WBTwAWVltqbSdT0j7hqPAzeHoafXCMIyTo
Vtxr/TDzLrh80eGwknR6xanZ9RKkW/1/lkam9RC4Rz8ayWnYnY4EySrJab5P+JGC
43kSp0ZxavJ+60tD4ux0AMlWvFBNT3TSmvOIzUwVlMfrIL95DJlQplbmheleIW+P
fSXdWPyD8UtoAKQCk6lTYCd22XLGt15WVJMYDCNpxqFtoYXEBApwRD7SMcaWA+Nu
n5alwENMko842BIMyysBCGtLn2TG62/eqPVZ570dOzxnAuaZ6PwCUqtzLzQhLk/T
6ujKfZY/F/61BUci8Ax94dy3CHlXsSrGdOKkdrD1zEvcabWI9yF5KuyQhqKkA/+q
a+Zl
-----END CERTIFICATE-----
