Certificate:
    Data:
        Version: 3 (0x2)
        Serial Number: 2 (0x2)
    Signature Algorithm: sha256WithRSAEncryption
        Issuer: O=iMovies, OU=PKI Infrastructure, CN=Certificate Authority
        Validity
            Not Before: Nov  8 18:01:57 2014 GMT
            Not After : Nov  8 18:01:57 2015 GMT
        Subject: O=iMovies, OU=TLS Infrastructure, CN=Database Server
        Subject Public Key Info:
            Public Key Algorithm: rsaEncryption
                Public-Key: (2048 bit)
                Modulus:
                    00:d5:27:30:60:99:2f:85:59:f9:84:7a:5f:f0:ed:
                    f7:bd:15:62:4d:0d:e0:d3:c4:1c:39:30:b9:47:78:
                    f9:88:d0:3e:48:06:f6:f8:2e:c0:49:c1:0a:2b:a0:
                    88:0b:2e:51:7f:c4:35:0d:77:28:28:a3:ec:cd:49:
                    b7:77:47:c0:7d:87:7a:22:06:b4:e6:35:80:2c:dd:
                    49:4b:1d:07:81:63:02:3f:6a:47:2b:14:ea:34:9a:
                    0d:31:2a:0f:bb:13:80:25:17:bc:dd:4c:c6:e4:0f:
                    1d:07:80:6d:1f:4b:33:18:3c:f2:3b:9f:d6:c5:ee:
                    84:e3:e1:7b:3c:ca:bc:22:3e:14:c5:00:7a:59:75:
                    2e:6e:00:7f:f6:04:dd:dd:8a:28:88:77:2b:d0:14:
                    54:23:a6:43:86:4c:54:8b:cf:03:d3:a7:c6:6a:40:
                    5c:0e:7d:c5:6a:55:51:e1:2b:a6:71:b3:3d:1e:b0:
                    3e:82:3a:ca:da:50:6b:62:eb:ed:5b:7a:4d:66:24:
                    67:58:58:5f:6b:4b:a4:e7:09:81:40:ca:b7:f8:ee:
                    a1:19:26:1a:ce:74:0d:6b:99:6f:bd:6a:05:67:fb:
                    83:5a:a5:05:48:b6:65:82:36:a5:b9:9e:9e:39:91:
                    37:e9:b3:30:03:c6:91:3e:5f:d9:88:76:df:bc:2e:
                    22:7b
                Exponent: 65537 (0x10001)
        X509v3 extensions:
            X509v3 Subject Key Identifier: 
                11:B0:E1:A4:2C:5D:28:24:6B:48:17:17:4E:84:F1:70:97:62:C8:46
            X509v3 Authority Key Identifier: 
                keyid:6C:11:C9:8B:07:A9:64:37:99:0B:0E:DF:F2:92:3C:82:56:A2:73:72
                DirName:/O=iMovies/OU=PKI Infrastructure/CN=Certificate Authority
                serial:C1:E9:5B:11:4B:58:8E:22

            X509v3 Basic Constraints: 
                CA:FALSE
            X509v3 Key Usage: 
                Digital Signature, Non Repudiation, Key Agreement
    Signature Algorithm: sha256WithRSAEncryption
         8b:9c:6b:f8:4c:cc:19:1e:ce:86:70:f2:41:74:4d:fa:c2:f5:
         36:76:59:4e:4f:84:7b:c7:67:aa:35:5f:e6:d9:20:9b:23:4e:
         8d:13:8b:ed:8b:e7:55:7d:e2:9c:fe:96:6c:c9:67:78:24:f0:
         ba:e6:17:02:fe:ff:cc:2b:45:b1:56:19:ca:2c:f6:40:93:d5:
         51:70:86:1f:08:86:09:e7:e4:46:99:fa:21:a5:79:a7:12:3b:
         4f:0b:b5:4e:aa:bf:1d:60:2e:e2:62:98:41:22:ca:4a:1f:8d:
         ca:bf:f3:f2:60:8a:e4:a3:57:c3:f3:a9:25:8b:22:99:0b:e0:
         bc:05:d7:7d:b1:6c:6c:8d:34:e9:bd:2e:dc:19:37:a8:6e:58:
         7e:87:6b:27:3f:16:d8:da:a4:92:f8:a7:21:ce:98:08:77:5d:
         72:a3:d5:0e:f4:b3:cb:0a:a6:eb:13:c2:55:69:f5:3a:d2:36:
         23:f7:62:57:99:4c:47:b5:16:b2:6b:ab:df:d9:cb:fa:c4:06:
         46:c4:6c:47:72:f2:df:85:da:bd:da:8c:7b:06:f8:e7:71:b5:
         a7:80:a1:37:7c:b3:53:a9:22:e1:8f:9c:39:33:98:18:3f:73:
         25:1c:68:f5:0f:85:1c:6c:37:5f:01:0f:fe:1c:0f:7d:02:4d:
         92:3c:fb:bd:ee:54:88:65:a8:d0:69:66:4a:c0:70:72:11:22:
         d6:c4:7a:9b:5f:7c:3b:21:64:c7:22:43:12:51:70:51:fc:80:
         2d:99:3f:b5:b0:00:cc:50:c6:98:df:38:d5:7d:df:e9:61:84:
         44:55:d7:09:5c:1e:bb:fe:e5:02:40:cd:89:7e:bc:5f:3f:47:
         2b:c6:5f:30:f4:f8:73:9a:63:db:2a:84:a3:25:e4:df:43:8a:
         7d:bb:6a:0e:a2:d6:51:52:47:0f:13:40:69:00:bb:3e:ae:a3:
         55:14:c4:29:88:85:df:1c:65:49:e1:cf:9d:29:ad:57:47:8a:
         31:a3:f0:30:ef:96:e1:e5:8a:1d:db:24:8b:6b:92:e6:71:6f:
         1e:32:ed:0b:bb:f4:b7:05:2b:63:cd:d7:2f:05:15:a7:11:ca:
         6d:5a:52:61:75:dc:f4:de:03:70:e3:40:8b:ee:61:c9:2b:4e:
         f5:50:a1:29:ff:cf:1e:d5:84:4c:14:b6:a8:24:19:1b:60:23:
         44:63:9f:60:66:d8:f5:df:45:1c:01:bc:8a:b2:30:50:d6:8d:
         1e:50:52:33:c1:f4:1f:8f:19:25:1e:98:ce:3d:e3:88:6c:5a:
         30:bf:1c:f7:5a:b5:19:c0:cf:05:8d:fe:58:fc:6b:1c:f4:4a:
         4b:4c:0a:86:e0:87:4c:0d
-----BEGIN CERTIFICATE-----
MIIEzzCCAregAwIBAgIBAjANBgkqhkiG9w0BAQsFADBPMRAwDgYDVQQKDAdpTW92
aWVzMRswGQYDVQQLDBJQS0kgSW5mcmFzdHJ1Y3R1cmUxHjAcBgNVBAMMFUNlcnRp
ZmljYXRlIEF1dGhvcml0eTAeFw0xNDExMDgxODAxNTdaFw0xNTExMDgxODAxNTda
MEkxEDAOBgNVBAoMB2lNb3ZpZXMxGzAZBgNVBAsMElRMUyBJbmZyYXN0cnVjdHVy
ZTEYMBYGA1UEAwwPRGF0YWJhc2UgU2VydmVyMIIBIjANBgkqhkiG9w0BAQEFAAOC
AQ8AMIIBCgKCAQEA1ScwYJkvhVn5hHpf8O33vRViTQ3g08QcOTC5R3j5iNA+SAb2
+C7AScEKK6CICy5Rf8Q1DXcoKKPszUm3d0fAfYd6Iga05jWALN1JSx0HgWMCP2pH
KxTqNJoNMSoPuxOAJRe83UzG5A8dB4BtH0szGDzyO5/Wxe6E4+F7PMq8Ij4UxQB6
WXUubgB/9gTd3YooiHcr0BRUI6ZDhkxUi88D06fGakBcDn3FalVR4SumcbM9HrA+
gjrK2lBrYuvtW3pNZiRnWFhfa0uk5wmBQMq3+O6hGSYaznQNa5lvvWoFZ/uDWqUF
SLZlgjaluZ6eOZE36bMwA8aRPl/ZiHbfvC4iewIDAQABo4G7MIG4MB0GA1UdDgQW
BBQRsOGkLF0oJGtIFxdOhPFwl2LIRjB/BgNVHSMEeDB2gBRsEcmLB6lkN5kLDt/y
kjyCVqJzcqFTpFEwTzEQMA4GA1UECgwHaU1vdmllczEbMBkGA1UECwwSUEtJIElu
ZnJhc3RydWN0dXJlMR4wHAYDVQQDDBVDZXJ0aWZpY2F0ZSBBdXRob3JpdHmCCQDB
6VsRS1iOIjAJBgNVHRMEAjAAMAsGA1UdDwQEAwIDyDANBgkqhkiG9w0BAQsFAAOC
AgEAi5xr+EzMGR7OhnDyQXRN+sL1NnZZTk+Ee8dnqjVf5tkgmyNOjROL7YvnVX3i
nP6WbMlneCTwuuYXAv7/zCtFsVYZyiz2QJPVUXCGHwiGCefkRpn6IaV5pxI7Twu1
Tqq/HWAu4mKYQSLKSh+Nyr/z8mCK5KNXw/OpJYsimQvgvAXXfbFsbI006b0u3Bk3
qG5YfodrJz8W2NqkkvinIc6YCHddcqPVDvSzywqm6xPCVWn1OtI2I/diV5lMR7UW
smur39nL+sQGRsRsR3Ly34XavdqMewb453G1p4ChN3yzU6ki4Y+cOTOYGD9zJRxo
9Q+FHGw3XwEP/hwPfQJNkjz7ve5UiGWo0GlmSsBwchEi1sR6m198OyFkxyJDElFw
UfyALZk/tbAAzFDGmN841X3f6WGERFXXCVweu/7lAkDNiX68Xz9HK8ZfMPT4c5pj
2yqEoyXk30OKfbtqDqLWUVJHDxNAaQC7Pq6jVRTEKYiF3xxlSeHPnSmtV0eKMaPw
MO+W4eWKHdski2uS5nFvHjLtC7v0twUrY83XLwUVpxHKbVpSYXXc9N4DcONAi+5h
yStO9VChKf/PHtWETBS2qCQZG2AjRGOfYGbY9d9FHAG8irIwUNaNHlBSM8H0H48Z
JR6Yzj3jiGxaML8c91q1GcDPBY3+WPxrHPRKS0wKhuCHTA0=
-----END CERTIFICATE-----
