Certificate:
    Data:
        Version: 3 (0x2)
        Serial Number: 4 (0x4)
    Signature Algorithm: sha256WithRSAEncryption
        Issuer: O=iMovies, OU=PKI Infrastructure, CN=Certificate Authority
        Validity
            Not Before: Nov  8 18:01:58 2014 GMT
            Not After : Nov  8 18:01:58 2015 GMT
        Subject: O=iMovies, OU=TLS Infrastructure, CN=Certificate Authority Server
        Subject Public Key Info:
            Public Key Algorithm: rsaEncryption
                Public-Key: (2048 bit)
                Modulus:
                    00:f9:6b:8e:06:0d:19:6c:62:84:60:58:60:3f:f8:
                    0b:3c:93:10:4a:b3:f6:4d:cf:51:44:b7:1b:f4:d9:
                    72:e5:77:74:17:6d:09:f4:64:fc:94:00:ad:11:7f:
                    ed:de:5d:c6:bb:d9:88:f4:5f:1b:02:4b:7d:03:3c:
                    f2:7f:18:45:02:e9:5d:57:74:e0:63:19:e7:d8:75:
                    c3:4a:50:e4:59:e7:0d:4d:d0:96:6d:e9:85:9e:dd:
                    ab:35:84:5e:11:e0:d2:ad:f8:61:9f:4a:76:65:56:
                    01:f7:26:4c:ec:1f:43:6f:76:d7:99:5d:7f:9a:74:
                    29:22:01:07:9e:6e:7f:dd:04:fd:8d:a3:ef:91:1b:
                    b6:76:93:ec:42:f3:9f:79:4a:fc:9c:f6:b4:f0:c4:
                    f4:79:e6:14:3c:6d:b4:e2:31:98:ec:1d:7e:11:e5:
                    78:4b:3f:40:c4:66:54:91:59:2c:9d:96:4c:3c:6f:
                    ec:98:f9:59:d2:97:83:cc:1f:05:91:51:ba:21:a3:
                    f1:a3:7c:aa:e6:be:57:f7:01:44:36:52:22:59:19:
                    8c:a8:02:8b:69:e0:46:87:5f:2e:94:07:49:d9:bc:
                    03:7e:00:f2:0e:d5:cf:80:f3:7c:3b:98:80:fd:94:
                    fc:43:4e:31:f0:c0:21:64:f8:28:26:d4:9e:54:48:
                    11:9b
                Exponent: 65537 (0x10001)
        X509v3 extensions:
            X509v3 Subject Key Identifier: 
                A4:C9:FB:D8:39:0B:B6:AA:CE:B6:83:57:CF:DE:2E:19:E7:34:C3:32
            X509v3 Authority Key Identifier: 
                keyid:6C:11:C9:8B:07:A9:64:37:99:0B:0E:DF:F2:92:3C:82:56:A2:73:72
                DirName:/O=iMovies/OU=PKI Infrastructure/CN=Certificate Authority
                serial:C1:E9:5B:11:4B:58:8E:22

            X509v3 Basic Constraints: 
                CA:FALSE
            X509v3 Key Usage: 
                Digital Signature, Non Repudiation, Key Agreement
    Signature Algorithm: sha256WithRSAEncryption
         96:7c:e4:17:97:04:e8:2a:f8:14:37:a8:cd:98:92:0e:33:b6:
         7c:f8:f6:a9:20:9f:29:81:67:1f:fe:60:0b:39:9c:bb:e2:74:
         ea:25:b9:e3:49:08:e9:dc:f0:fb:86:94:89:b0:c7:e4:61:f5:
         78:8b:cb:7b:aa:0e:99:62:b4:8d:85:d7:34:0c:01:7c:df:7b:
         7f:9a:4d:e6:d2:fc:4d:58:80:e8:2e:f3:4a:7c:4c:a9:2d:6a:
         0b:92:21:fe:d9:cd:48:6b:82:84:fd:9b:67:aa:35:ca:e6:97:
         ea:30:f3:09:73:f1:b9:07:f8:8e:67:3d:fa:e5:b0:63:a7:2c:
         6e:5c:07:9c:b7:45:f1:9c:4b:50:8f:08:e4:03:ca:61:16:34:
         66:1c:a4:0d:08:74:5a:c5:1c:99:21:69:7c:55:94:44:c3:9e:
         d0:63:71:b3:bf:5c:fc:a3:28:d7:e9:4b:5d:1c:d7:87:ab:78:
         05:b8:be:19:4c:61:92:87:98:5e:4e:4c:a2:6f:9b:28:b1:09:
         6e:d3:25:b1:c2:f3:57:fc:43:64:05:95:50:59:63:7d:30:b4:
         87:8e:cd:e3:61:a3:92:c5:75:b0:07:58:46:fc:37:ee:e9:3e:
         9a:5e:17:3c:c3:a4:63:dd:4f:49:1e:b2:e3:98:24:ba:85:2b:
         8c:67:dc:b9:e6:77:49:97:e1:68:dc:1d:d8:7b:6b:e2:13:a5:
         36:b6:91:ce:3d:b0:08:fe:b2:80:53:01:04:d1:f9:c6:85:97:
         66:17:82:c8:10:f7:65:41:fa:1f:83:bf:b9:ae:9d:1c:6c:2c:
         14:63:cf:68:b5:a7:47:c4:b1:fc:8f:c5:ee:47:b4:c2:03:04:
         32:40:7b:87:61:2b:a7:84:50:70:61:ed:7e:89:ce:b8:f2:1a:
         65:c4:9d:c6:e7:1f:22:50:20:e9:fa:36:7c:ee:a7:bc:ed:17:
         b7:52:ae:5e:69:23:d4:a6:94:6c:4d:de:9e:d0:d6:f6:bc:b3:
         95:1b:63:d2:f3:3d:c4:b1:ca:bf:03:bf:5c:53:a2:82:5d:fd:
         96:2b:78:33:01:ad:1a:f0:33:c0:7e:05:9c:fb:a8:24:c6:5e:
         bb:eb:81:21:97:6b:f5:bc:46:00:65:45:5e:dc:ce:93:1a:d5:
         23:2b:a6:f2:ea:ec:32:3d:43:c5:fe:de:a1:4a:e6:d6:00:2d:
         d6:cf:60:0d:d0:99:00:ef:06:af:e4:7e:90:b6:cc:af:47:ff:
         1c:1e:79:88:be:18:7d:f0:a6:98:08:86:8e:65:05:af:3b:b1:
         72:a7:ef:9c:44:df:16:0f:1e:96:2b:5f:fc:30:54:78:97:56:
         0e:4d:12:77:83:f0:9b:8d
-----BEGIN CERTIFICATE-----
MIIE3DCCAsSgAwIBAgIBBDANBgkqhkiG9w0BAQsFADBPMRAwDgYDVQQKDAdpTW92
aWVzMRswGQYDVQQLDBJQS0kgSW5mcmFzdHJ1Y3R1cmUxHjAcBgNVBAMMFUNlcnRp
ZmljYXRlIEF1dGhvcml0eTAeFw0xNDExMDgxODAxNThaFw0xNTExMDgxODAxNTha
MFYxEDAOBgNVBAoMB2lNb3ZpZXMxGzAZBgNVBAsMElRMUyBJbmZyYXN0cnVjdHVy
ZTElMCMGA1UEAwwcQ2VydGlmaWNhdGUgQXV0aG9yaXR5IFNlcnZlcjCCASIwDQYJ
KoZIhvcNAQEBBQADggEPADCCAQoCggEBAPlrjgYNGWxihGBYYD/4CzyTEEqz9k3P
UUS3G/TZcuV3dBdtCfRk/JQArRF/7d5dxrvZiPRfGwJLfQM88n8YRQLpXVd04GMZ
59h1w0pQ5FnnDU3Qlm3phZ7dqzWEXhHg0q34YZ9KdmVWAfcmTOwfQ29215ldf5p0
KSIBB55uf90E/Y2j75EbtnaT7ELzn3lK/Jz2tPDE9HnmFDxttOIxmOwdfhHleEs/
QMRmVJFZLJ2WTDxv7Jj5WdKXg8wfBZFRuiGj8aN8qua+V/cBRDZSIlkZjKgCi2ng
RodfLpQHSdm8A34A8g7Vz4DzfDuYgP2U/ENOMfDAIWT4KCbUnlRIEZsCAwEAAaOB
uzCBuDAdBgNVHQ4EFgQUpMn72DkLtqrOtoNXz94uGec0wzIwfwYDVR0jBHgwdoAU
bBHJiwepZDeZCw7f8pI8glaic3KhU6RRME8xEDAOBgNVBAoMB2lNb3ZpZXMxGzAZ
BgNVBAsMElBLSSBJbmZyYXN0cnVjdHVyZTEeMBwGA1UEAwwVQ2VydGlmaWNhdGUg
QXV0aG9yaXR5ggkAwelbEUtYjiIwCQYDVR0TBAIwADALBgNVHQ8EBAMCA8gwDQYJ
KoZIhvcNAQELBQADggIBAJZ85BeXBOgq+BQ3qM2Ykg4ztnz49qkgnymBZx/+YAs5
nLvidOolueNJCOnc8PuGlImwx+Rh9XiLy3uqDplitI2F1zQMAXzfe3+aTebS/E1Y
gOgu80p8TKktaguSIf7ZzUhrgoT9m2eqNcrml+ow8wlz8bkH+I5nPfrlsGOnLG5c
B5y3RfGcS1CPCOQDymEWNGYcpA0IdFrFHJkhaXxVlETDntBjcbO/XPyjKNfpS10c
14ereAW4vhlMYZKHmF5OTKJvmyixCW7TJbHC81f8Q2QFlVBZY30wtIeOzeNho5LF
dbAHWEb8N+7pPppeFzzDpGPdT0kesuOYJLqFK4xn3Lnmd0mX4WjcHdh7a+ITpTa2
kc49sAj+soBTAQTR+caFl2YXgsgQ92VB+h+Dv7munRxsLBRjz2i1p0fEsfyPxe5H
tMIDBDJAe4dhK6eEUHBh7X6JzrjyGmXEncbnHyJQIOn6Nnzup7ztF7dSrl5pI9Sm
lGxN3p7Q1va8s5UbY9LzPcSxyr8Dv1xTooJd/ZYreDMBrRrwM8B+BZz7qCTGXrvr
gSGXa/W8RgBlRV7czpMa1SMrpvLq7DI9Q8X+3qFK5tYALdbPYA3QmQDvBq/kfpC2
zK9H/xweeYi+GH3wppgIho5lBa87sXKn75xE3xYPHpYrX/wwVHiXVg5NEneD8JuN
-----END CERTIFICATE-----
