Certificate:
    Data:
        Version: 3 (0x2)
        Serial Number: 5 (0x5)
    Signature Algorithm: sha256WithRSAEncryption
        Issuer: O=iMovies, OU=PKI Infrastructure, CN=Certificate Authority
        Validity
            Not Before: Nov  8 18:02:36 2014 GMT
            Not After : Nov  8 18:02:36 2015 GMT
        Subject: O=iMovies, OU=Employee Base, SN=Smith, GN=Jean-Pierre/emailAddress=jsmith@student.ethz.ch, CN=jsmith
        Subject Public Key Info:
            Public Key Algorithm: rsaEncryption
                Public-Key: (1024 bit)
                Modulus:
                    00:bd:12:d7:64:84:f4:d4:b7:1a:a4:8b:90:8e:d4:
                    ab:80:b7:af:38:ed:ae:5f:ba:96:7f:af:74:ed:08:
                    a7:4b:2d:03:ac:36:df:f5:61:40:6b:b8:9a:29:86:
                    ef:4d:f5:34:d2:fe:84:39:7e:b6:a6:dc:d6:36:be:
                    c6:9d:8b:e5:57:cc:86:49:60:ab:8d:06:e1:09:7d:
                    14:41:bc:df:6d:85:a0:d9:af:17:e9:43:cb:94:43:
                    9c:4a:42:ca:a2:eb:69:20:8c:5b:49:7c:4d:80:69:
                    d2:94:86:1f:ed:a1:28:6e:4b:12:81:09:3b:ef:7b:
                    58:9c:74:9b:77:6a:f8:d2:c5
                Exponent: 65537 (0x10001)
        X509v3 extensions:
            X509v3 Subject Key Identifier: 
                FC:B0:E0:71:34:F7:CE:A9:3A:CF:EC:F4:BD:AC:9C:10:75:2B:54:A7
            X509v3 Authority Key Identifier: 
                keyid:6C:11:C9:8B:07:A9:64:37:99:0B:0E:DF:F2:92:3C:82:56:A2:73:72
                DirName:/O=iMovies/OU=PKI Infrastructure/CN=Certificate Authority
                serial:C1:E9:5B:11:4B:58:8E:22

            X509v3 Basic Constraints: 
                CA:FALSE
            X509v3 Key Usage: 
                Digital Signature, Non Repudiation, Key Agreement
            X509v3 Extended Key Usage: 
                TLS Web Client Authentication, E-mail Protection
            X509v3 Subject Alternative Name: 
                email:jsmith@student.ethz.ch
    Signature Algorithm: sha256WithRSAEncryption
         03:51:34:51:74:17:3a:e0:5d:2c:c2:16:e8:4e:f0:48:1a:b5:
         eb:86:6a:d0:1f:16:7f:09:ae:1e:41:4e:bd:f4:32:c8:d5:87:
         54:9c:52:9e:4f:4c:16:92:f6:e5:c6:d6:9f:ab:47:84:c8:c7:
         26:c0:93:96:d7:cd:f1:14:53:73:bd:93:ae:94:1a:4e:95:a5:
         c8:2c:b3:71:88:3b:88:b3:a9:18:6f:68:70:e1:82:83:39:e0:
         70:1d:8c:de:c9:0f:ff:ae:56:fb:14:1a:2e:76:d6:45:3d:2d:
         70:19:7d:5e:52:f6:74:db:13:c1:61:f0:ff:d3:28:a9:27:93:
         2a:14:8d:4d:1b:2f:72:ca:1b:4a:f5:bf:b8:68:4d:d8:89:b0:
         d2:4d:ee:0e:63:7c:c7:64:50:9d:17:98:ff:20:0e:63:84:60:
         91:07:85:c6:df:64:ef:84:6f:1a:c7:2a:9f:dc:73:b4:70:f5:
         ef:ab:e1:8f:47:28:fd:ef:b6:3d:24:2d:3a:d6:48:ba:3e:69:
         e9:e1:73:14:2d:2f:37:de:1f:d5:89:95:df:18:9d:7b:4f:bb:
         20:eb:66:e1:03:b0:4c:95:f9:b8:ec:f0:33:92:7b:ca:17:45:
         97:01:9c:5d:99:16:09:8a:c7:0e:e9:ed:b8:da:9e:51:5e:32:
         25:ab:a0:dc:9b:20:76:85:80:17:b2:18:27:c7:d1:1b:1c:e8:
         d2:7a:02:7f:a9:e5:d1:0a:8c:7a:05:c6:57:e6:37:48:1c:6c:
         4c:c3:ec:bb:ea:71:ea:3d:75:68:91:b2:18:8b:50:a2:c8:97:
         89:87:e6:90:04:19:6f:73:66:5f:a5:85:78:53:e9:4f:bb:82:
         d6:33:28:e1:46:7e:58:d7:2f:de:90:e8:3e:54:09:5f:d0:81:
         58:ce:cc:fc:0d:3e:d7:f5:24:d9:09:c1:13:66:a7:fd:30:3c:
         b9:d8:ce:df:ec:18:7f:86:1d:12:44:74:73:20:65:00:33:1d:
         a9:99:44:b4:1c:bc:08:88:e1:98:0f:23:0c:aa:a9:cc:4e:df:
         1a:ee:f3:c5:22:15:f5:29:2f:ae:7f:aa:fe:50:8b:24:d2:c7:
         9e:ef:fb:ef:69:c9:57:29:47:b6:6d:eb:c4:0d:37:31:96:d7:
         3a:8d:f4:50:28:b9:39:49:a7:7b:8d:63:8c:7f:70:39:e8:37:
         3d:02:34:34:7e:00:4c:42:5e:0f:d4:c8:c2:62:ad:01:e1:08:
         23:52:63:c6:5d:3b:3c:aa:a0:dc:99:17:f4:aa:c4:cf:3e:33:
         8d:d7:b7:31:3a:be:7f:d1:52:4d:2c:c2:4a:08:54:c1:07:0c:
         fe:9e:5c:72:90:54:c7:68
-----BEGIN CERTIFICATE-----
MIIEzTCCArWgAwIBAgIBBTANBgkqhkiG9w0BAQsFADBPMRAwDgYDVQQKDAdpTW92
aWVzMRswGQYDVQQLDBJQS0kgSW5mcmFzdHJ1Y3R1cmUxHjAcBgNVBAMMFUNlcnRp
ZmljYXRlIEF1dGhvcml0eTAeFw0xNDExMDgxODAyMzZaFw0xNTExMDgxODAyMzZa
MIGIMRAwDgYDVQQKDAdpTW92aWVzMRYwFAYDVQQLDA1FbXBsb3llZSBCYXNlMQ4w
DAYDVQQEDAVTbWl0aDEUMBIGA1UEKgwLSmVhbi1QaWVycmUxJTAjBgkqhkiG9w0B
CQEWFmpzbWl0aEBzdHVkZW50LmV0aHouY2gxDzANBgNVBAMMBmpzbWl0aDCBnzAN
BgkqhkiG9w0BAQEFAAOBjQAwgYkCgYEAvRLXZIT01LcapIuQjtSrgLevOO2uX7qW
f6907QinSy0DrDbf9WFAa7iaKYbvTfU00v6EOX62ptzWNr7GnYvlV8yGSWCrjQbh
CX0UQbzfbYWg2a8X6UPLlEOcSkLKoutpIIxbSXxNgGnSlIYf7aEobksSgQk773tY
nHSbd2r40sUCAwEAAaOB/TCB+jAdBgNVHQ4EFgQU/LDgcTT3zqk6z+z0vaycEHUr
VKcwfwYDVR0jBHgwdoAUbBHJiwepZDeZCw7f8pI8glaic3KhU6RRME8xEDAOBgNV
BAoMB2lNb3ZpZXMxGzAZBgNVBAsMElBLSSBJbmZyYXN0cnVjdHVyZTEeMBwGA1UE
AwwVQ2VydGlmaWNhdGUgQXV0aG9yaXR5ggkAwelbEUtYjiIwCQYDVR0TBAIwADAL
BgNVHQ8EBAMCA8gwHQYDVR0lBBYwFAYIKwYBBQUHAwIGCCsGAQUFBwMEMCEGA1Ud
EQQaMBiBFmpzbWl0aEBzdHVkZW50LmV0aHouY2gwDQYJKoZIhvcNAQELBQADggIB
AANRNFF0FzrgXSzCFuhO8EgateuGatAfFn8Jrh5BTr30MsjVh1ScUp5PTBaS9uXG
1p+rR4TIxybAk5bXzfEUU3O9k66UGk6Vpcgss3GIO4izqRhvaHDhgoM54HAdjN7J
D/+uVvsUGi521kU9LXAZfV5S9nTbE8Fh8P/TKKknkyoUjU0bL3LKG0r1v7hoTdiJ
sNJN7g5jfMdkUJ0XmP8gDmOEYJEHhcbfZO+EbxrHKp/cc7Rw9e+r4Y9HKP3vtj0k
LTrWSLo+aenhcxQtLzfeH9WJld8YnXtPuyDrZuEDsEyV+bjs8DOSe8oXRZcBnF2Z
FgmKxw7p7bjanlFeMiWroNybIHaFgBeyGCfH0Rsc6NJ6An+p5dEKjHoFxlfmN0gc
bEzD7Lvqceo9dWiRshiLUKLIl4mH5pAEGW9zZl+lhXhT6U+7gtYzKOFGfljXL96Q
6D5UCV/QgVjOzPwNPtf1JNkJwRNmp/0wPLnYzt/sGH+GHRJEdHMgZQAzHamZRLQc
vAiI4ZgPIwyqqcxO3xru88UiFfUpL65/qv5QiyTSx57v++9pyVcpR7Zt68QNNzGW
1zqN9FAouTlJp3uNY4x/cDnoNz0CNDR+AExCXg/UyMJirQHhCCNSY8ZdOzyqoNyZ
F/SqxM8+M43XtzE6vn/RUk0swkoIVMEHDP6eXHKQVMdo
-----END CERTIFICATE-----
