Certificate:
    Data:
        Version: 3 (0x2)
        Serial Number: 6 (0x6)
    Signature Algorithm: sha256WithRSAEncryption
        Issuer: O=iMovies, OU=PKI Infrastructure, CN=Certificate Authority
        Validity
            Not Before: Nov  8 18:03:01 2014 GMT
            Not After : Nov  8 18:03:01 2015 GMT
        Subject: O=iMovies, OU=Employee Base, SN=Smith, GN=Jean-Pierre/emailAddress=jsmith@student.ethz.ch, CN=jsmith
        Subject Public Key Info:
            Public Key Algorithm: rsaEncryption
                Public-Key: (1024 bit)
                Modulus:
                    00:bd:12:d7:64:84:f4:d4:b7:1a:a4:8b:90:8e:d4:
                    ab:80:b7:af:38:ed:ae:5f:ba:96:7f:af:74:ed:08:
                    a7:4b:2d:03:ac:36:df:f5:61:40:6b:b8:9a:29:86:
                    ef:4d:f5:34:d2:fe:84:39:7e:b6:a6:dc:d6:36:be:
                    c6:9d:8b:e5:57:cc:86:49:60:ab:8d:06:e1:09:7d:
                    14:41:bc:df:6d:85:a0:d9:af:17:e9:43:cb:94:43:
                    9c:4a:42:ca:a2:eb:69:20:8c:5b:49:7c:4d:80:69:
                    d2:94:86:1f:ed:a1:28:6e:4b:12:81:09:3b:ef:7b:
                    58:9c:74:9b:77:6a:f8:d2:c5
                Exponent: 65537 (0x10001)
        X509v3 extensions:
            X509v3 Subject Key Identifier: 
                FC:B0:E0:71:34:F7:CE:A9:3A:CF:EC:F4:BD:AC:9C:10:75:2B:54:A7
            X509v3 Authority Key Identifier: 
                keyid:6C:11:C9:8B:07:A9:64:37:99:0B:0E:DF:F2:92:3C:82:56:A2:73:72
                DirName:/O=iMovies/OU=PKI Infrastructure/CN=Certificate Authority
                serial:C1:E9:5B:11:4B:58:8E:22

            X509v3 Basic Constraints: 
                CA:FALSE
            X509v3 Key Usage: 
                Digital Signature, Non Repudiation, Key Agreement
            X509v3 Extended Key Usage: 
                TLS Web Client Authentication, E-mail Protection
            X509v3 Subject Alternative Name: 
                email:jsmith@student.ethz.ch
    Signature Algorithm: sha256WithRSAEncryption
         49:05:48:27:09:1e:a2:73:68:f9:43:8c:be:14:b0:ad:3d:da:
         c4:c6:3c:d2:94:fc:f0:af:a5:7f:fd:a2:56:13:9e:14:79:f4:
         77:57:25:88:5b:dc:09:6a:8b:22:24:ca:3f:9e:11:01:93:32:
         b3:cc:cd:9b:9d:c3:bf:1e:9f:6e:10:8b:95:04:0d:d4:da:43:
         aa:8a:88:71:7d:cf:f0:92:8e:2c:8b:6a:6c:d4:61:35:e3:a5:
         fb:c7:9d:38:78:3a:2e:b5:5d:82:bb:4b:3c:fa:ec:f0:6f:69:
         45:7b:7d:2f:cc:89:e4:00:76:9e:8a:48:72:04:a3:d5:48:92:
         b6:41:27:7f:20:ac:7e:00:74:ac:6a:6d:3b:5e:3b:c4:3b:c4:
         f4:58:fe:67:68:2e:0f:94:31:c7:a9:82:8e:b9:97:3c:47:6c:
         c1:38:8b:dd:a9:fd:33:7c:8d:95:04:57:1b:de:d2:63:b7:37:
         6d:f3:80:78:11:5a:ad:f5:de:06:2e:1e:cd:46:a9:45:e7:23:
         6e:55:b3:1d:b2:b6:60:18:c0:af:51:53:c0:43:f1:d3:0d:4c:
         c5:c5:98:39:39:7d:47:f5:c7:25:14:df:31:55:e1:e0:68:ab:
         eb:5c:35:8e:9a:ae:1d:f1:08:41:5a:55:8c:5d:40:2a:f8:19:
         fc:73:7d:84:3a:cf:ad:fe:f9:2d:ce:9d:df:00:95:ee:9d:0f:
         73:ce:bf:74:37:e7:27:7f:26:fb:9b:26:3e:ff:4f:f0:0e:27:
         51:3c:55:8f:00:36:fa:9c:ad:95:2e:4e:79:41:99:8e:b7:3a:
         78:af:32:d0:01:51:4e:01:f1:57:93:ef:5d:72:4f:4f:e3:ff:
         83:2f:11:a3:ec:42:ea:ed:cf:28:18:d4:0f:82:36:95:a0:b7:
         f1:2b:09:7d:c8:73:a5:8c:24:1f:1d:ec:c6:01:a0:ac:6b:37:
         e9:28:2d:63:7f:0c:07:22:40:6f:40:8c:7f:fb:4a:4f:9e:84:
         c8:d0:96:6e:f1:47:5c:cd:f0:c2:ce:3e:f9:ca:03:32:7d:8e:
         51:cc:24:d4:c7:b8:13:e6:a2:e1:d0:89:3d:48:b6:29:ad:f9:
         d0:43:3d:db:21:88:f8:a3:82:29:ab:82:89:2a:06:cd:0e:42:
         95:1a:35:b6:0d:8f:17:44:72:58:80:75:cc:bd:01:27:9d:e0:
         6b:fc:c2:58:87:5e:48:94:09:b3:09:6f:58:de:21:58:84:0c:
         c1:75:87:69:3a:85:99:ba:78:1f:1b:c7:d4:88:c8:12:5d:e6:
         d8:d8:32:d6:a0:da:bb:01:1d:0f:51:59:90:15:43:52:ee:b2:
         d8:71:8f:86:17:9c:f4:c5
-----BEGIN CERTIFICATE-----
MIIEzTCCArWgAwIBAgIBBjANBgkqhkiG9w0BAQsFADBPMRAwDgYDVQQKDAdpTW92
aWVzMRswGQYDVQQLDBJQS0kgSW5mcmFzdHJ1Y3R1cmUxHjAcBgNVBAMMFUNlcnRp
ZmljYXRlIEF1dGhvcml0eTAeFw0xNDExMDgxODAzMDFaFw0xNTExMDgxODAzMDFa
MIGIMRAwDgYDVQQKDAdpTW92aWVzMRYwFAYDVQQLDA1FbXBsb3llZSBCYXNlMQ4w
DAYDVQQEDAVTbWl0aDEUMBIGA1UEKgwLSmVhbi1QaWVycmUxJTAjBgkqhkiG9w0B
CQEWFmpzbWl0aEBzdHVkZW50LmV0aHouY2gxDzANBgNVBAMMBmpzbWl0aDCBnzAN
BgkqhkiG9w0BAQEFAAOBjQAwgYkCgYEAvRLXZIT01LcapIuQjtSrgLevOO2uX7qW
f6907QinSy0DrDbf9WFAa7iaKYbvTfU00v6EOX62ptzWNr7GnYvlV8yGSWCrjQbh
CX0UQbzfbYWg2a8X6UPLlEOcSkLKoutpIIxbSXxNgGnSlIYf7aEobksSgQk773tY
nHSbd2r40sUCAwEAAaOB/TCB+jAdBgNVHQ4EFgQU/LDgcTT3zqk6z+z0vaycEHUr
VKcwfwYDVR0jBHgwdoAUbBHJiwepZDeZCw7f8pI8glaic3KhU6RRME8xEDAOBgNV
BAoMB2lNb3ZpZXMxGzAZBgNVBAsMElBLSSBJbmZyYXN0cnVjdHVyZTEeMBwGA1UE
AwwVQ2VydGlmaWNhdGUgQXV0aG9yaXR5ggkAwelbEUtYjiIwCQYDVR0TBAIwADAL
BgNVHQ8EBAMCA8gwHQYDVR0lBBYwFAYIKwYBBQUHAwIGCCsGAQUFBwMEMCEGA1Ud
EQQaMBiBFmpzbWl0aEBzdHVkZW50LmV0aHouY2gwDQYJKoZIhvcNAQELBQADggIB
AEkFSCcJHqJzaPlDjL4UsK092sTGPNKU/PCvpX/9olYTnhR59HdXJYhb3AlqiyIk
yj+eEQGTMrPMzZudw78en24Qi5UEDdTaQ6qKiHF9z/CSjiyLamzUYTXjpfvHnTh4
Oi61XYK7Szz67PBvaUV7fS/MieQAdp6KSHIEo9VIkrZBJ38grH4AdKxqbTteO8Q7
xPRY/mdoLg+UMcepgo65lzxHbME4i92p/TN8jZUEVxve0mO3N23zgHgRWq313gYu
Hs1GqUXnI25Vsx2ytmAYwK9RU8BD8dMNTMXFmDk5fUf1xyUU3zFV4eBoq+tcNY6a
rh3xCEFaVYxdQCr4GfxzfYQ6z63++S3Ond8Ale6dD3POv3Q35yd/JvubJj7/T/AO
J1E8VY8ANvqcrZUuTnlBmY63OnivMtABUU4B8VeT711yT0/j/4MvEaPsQurtzygY
1A+CNpWgt/ErCX3Ic6WMJB8d7MYBoKxrN+koLWN/DAciQG9AjH/7Sk+ehMjQlm7x
R1zN8MLOPvnKAzJ9jlHMJNTHuBPmouHQiT1Itimt+dBDPdshiPijgimrgokqBs0O
QpUaNbYNjxdEcliAdcy9ASed4Gv8wliHXkiUCbMJb1jeIViEDMF1h2k6hZm6eB8b
x9SIyBJd5tjYMtag2rsBHQ9RWZAVQ1Lusthxj4YXnPTF
-----END CERTIFICATE-----
